target datalayout = "e-m:e-p270:32:32-p271:32:32-p272:64:64-i64:64-i128:128-f80:128-n8:16:32:64-S128"
target triple = "x86_64-unknown-linux-gnu"

@.str.375 = private unnamed_addr constant [28 x i8] c"failed to set process title\00", align 1

; Function Attrs: nounwind uwtable
define internal i32 @updateProcTitleTemplate(ptr noundef %err) #0 {
entry:
  %retval = alloca i32, align 4
  %err.addr = alloca ptr, align 8
  store ptr %err, ptr %err.addr, align 8
  %call = call i32 @redisSetProcTitle(ptr noundef null)
  %cmp = icmp eq i32 %call, -1
  br i1 %cmp, label %if.then, label %if.end

if.then:                                          ; preds = %entry
  %0 = load ptr, ptr %err.addr, align 8
  store ptr @.str.375, ptr %0, align 8
  store i32 0, ptr %retval, align 4
  br label %return

if.end:                                           ; preds = %entry
  store i32 1, ptr %retval, align 4
  br label %return

return:                                           ; preds = %if.end, %if.then
  %1 = load i32, ptr %retval, align 4
  ret i32 %1
}