; Function Attrs: nounwind uwtable
define internal noundef i32 @updateProcTitleTemplate(ptr nocapture noundef writeonly %err) #2 {
entry:
  %call = tail call i32 @redisSetProcTitle(ptr noundef null) #24
  %cmp = icmp eq i32 %call, -1
  br i1 %cmp, label %if.then, label %return

if.then:                                          ; preds = %entry
  store ptr @.str.375, ptr %err, align 8
  br label %return

return:                                           ; preds = %entry, %if.then
  %retval.0 = phi i32 [ 0, %if.then ], [ 1, %entry ]
  ret i32 %retval.0
}